target datalayout = "e-m:e-p270:32:32-p271:32:32-p272:64:64-i64:64-i128:128-f80:128-n8:16:32:64-S128"
target triple = "x86_64-pc-linux-gnu"

%struct.fstReaderContext = type { ptr, ptr, i64, i64, i64, i64, i64, i32, i64, i64, ptr, ptr, ptr, i32, ptr, i8, i8, i8, [129 x i8], [120 x i8], i64, ptr, ptr, i64, i32, ptr, ptr, i64, i64, i8, ptr, i64, i64, ptr, i64, ptr, ptr, i64, i64, ptr, i32, i32, ptr, i32, i32, i32, i64, i8, %struct.fstHier, ptr, i32, ptr, i32, i8, [513 x i8], [513 x i8], ptr, i8, i32, i32, [65536 x i8], ptr, ptr }
%struct.fstHier = type { i8, %union.anon }
%union.anon = type { %"struct.fstHier::(anonymous union)::fstHierAttr" }
%"struct.fstHier::(anonymous union)::fstHierAttr" = type { i8, i8, ptr, i64, i64, i32 }

; Function Attrs: mustprogress nounwind uwtable
define void @fstReaderIterBlocksSetNativeDoublesOnCallback(ptr noundef %0, i32 noundef %1) #8 {
  %3 = alloca ptr, align 8
  %4 = alloca i32, align 4
  %5 = alloca ptr, align 8
  store ptr %0, ptr %3, align 8, !tbaa !50
  store i32 %1, ptr %4, align 4, !tbaa !11
  call void @llvm.lifetime.start.p0(i64 8, ptr %5) #15
  %6 = load ptr, ptr %3, align 8, !tbaa !50
  store ptr %6, ptr %5, align 8, !tbaa !147
  %7 = load ptr, ptr %5, align 8, !tbaa !147
  %8 = icmp ne ptr %7, null
  br i1 %8, label %9, label %21

9:                                                ; preds = %2
  %10 = load i32, ptr %4, align 4, !tbaa !11
  %11 = icmp ne i32 %10, 0
  %12 = zext i1 %11 to i32
  %13 = load ptr, ptr %5, align 8, !tbaa !147
  %14 = getelementptr inbounds nuw %struct.fstReaderContext, ptr %13, i32 0, i32 17
  %15 = trunc i32 %12 to i8
  %16 = load i8, ptr %14, align 2
  %17 = and i8 %15, 1
  %18 = shl i8 %17, 2
  %19 = and i8 %16, -5
  %20 = or i8 %19, %18
  store i8 %20, ptr %14, align 2
  br label %21

21:                                               ; preds = %9, %2
  call void @llvm.lifetime.end.p0(i64 8, ptr %5) #15
  ret void
}